target datalayout = "e-m:e-p270:32:32-p271:32:32-p272:64:64-i64:64-i128:128-f80:128-n8:16:32:64-S128"
target triple = "x86_64-pc-linux-gnu"

%"class.std::vector" = type { %"struct.std::_Vector_base" }
%"struct.std::_Vector_base" = type { %"struct.std::_Vector_base<std::__cxx11::basic_string<char>, std::allocator<std::__cxx11::basic_string<char>>>::_Vector_impl" }
%"struct.std::_Vector_base<std::__cxx11::basic_string<char>, std::allocator<std::__cxx11::basic_string<char>>>::_Vector_impl" = type { %"struct.std::_Vector_base<std::__cxx11::basic_string<char>, std::allocator<std::__cxx11::basic_string<char>>>::_Vector_impl_data" }
%"struct.std::_Vector_base<std::__cxx11::basic_string<char>, std::allocator<std::__cxx11::basic_string<char>>>::_Vector_impl_data" = type { ptr, ptr, ptr }

@.str.74 = private unnamed_addr constant [5 x i8] c"/**\0A\00", align 1
@.str.75 = private unnamed_addr constant [5 x i8] c" */\0A\00", align 1

; Function Attrs: mustprogress uwtable
define internal void @_ZN19grpc_java_generator12_GLOBAL__N_128GrpcGetDocLinesForDescriptorB5cxx11EPKN14grpc_generator13CommentHolderE(ptr dead_on_unwind noalias writable sret(%"class.std::vector") align 8 %0, ptr noundef %1) #4 {
  %3 = alloca ptr, align 8
  %4 = alloca ptr, align 8
  store ptr %0, ptr %3, align 8
  store ptr %1, ptr %4, align 8, !tbaa !89
  %5 = load ptr, ptr %4, align 8, !tbaa !89
  %6 = load ptr, ptr %5, align 8, !tbaa !13
  %7 = getelementptr inbounds ptr, ptr %6, i64 4
  %8 = load ptr, ptr %7, align 8
  call void %8(ptr dead_on_unwind writable sret(%"class.std::vector") align 8 %0, ptr noundef nonnull align 8 dereferenceable(8) %5)
  ret void
}

; Function Attrs: mustprogress uwtable
define internal void @_ZN19grpc_java_generator12_GLOBAL__N_126GrpcWriteServiceDocCommentEPN14grpc_generator7PrinterERSt3mapINSt7__cxx1112basic_stringIcSt11char_traitsIcESaIcEEESA_St4lessISA_ESaISt4pairIKSA_SA_EEEPKNS1_7ServiceE(ptr noundef %0, ptr noundef nonnull align 8 dereferenceable(48) %1, ptr noundef %2) #4 personality ptr @__gxx_personality_v0 {
  %4 = alloca ptr, align 8
  %5 = alloca ptr, align 8
  %6 = alloca ptr, align 8
  %7 = alloca %"class.std::vector", align 8
  %8 = alloca ptr, align 8
  %9 = alloca i32, align 4
  store ptr %0, ptr %4, align 8, !tbaa !31
  store ptr %1, ptr %5, align 8, !tbaa !17
  store ptr %2, ptr %6, align 8, !tbaa !9
  %10 = load ptr, ptr %4, align 8, !tbaa !31
  %11 = load ptr, ptr %10, align 8, !tbaa !13
  %12 = getelementptr inbounds ptr, ptr %11, i64 3
  %13 = load ptr, ptr %12, align 8
  call void %13(ptr noundef nonnull align 8 dereferenceable(8) %10, ptr noundef @.str.74)
  call void @llvm.lifetime.start.p0(i64 24, ptr %7) #3
  %14 = load ptr, ptr %6, align 8, !tbaa !9
  call void @_ZN19grpc_java_generator12_GLOBAL__N_128GrpcGetDocLinesForDescriptorB5cxx11EPKN14grpc_generator13CommentHolderE(ptr dead_on_unwind writable sret(%"class.std::vector") align 8 %7, ptr noundef %14)
  %15 = load ptr, ptr %4, align 8, !tbaa !31
  %16 = load ptr, ptr %5, align 8, !tbaa !17
  invoke void @_ZN19grpc_java_generator12_GLOBAL__N_123GrpcWriteDocCommentBodyEPN14grpc_generator7PrinterERSt3mapINSt7__cxx1112basic_stringIcSt11char_traitsIcESaIcEEESA_St4lessISA_ESaISt4pairIKSA_SA_EEERKSt6vectorISA_SaISA_EEb(ptr noundef %15, ptr noundef nonnull align 8 dereferenceable(48) %16, ptr noundef nonnull align 8 dereferenceable(24) %7, i1 noundef zeroext true)
          to label %17 unwind label %23

17:                                               ; preds = %3
  %18 = load ptr, ptr %4, align 8, !tbaa !31
  %19 = load ptr, ptr %18, align 8, !tbaa !13
  %20 = getelementptr inbounds ptr, ptr %19, i64 3
  %21 = load ptr, ptr %20, align 8
  invoke void %21(ptr noundef nonnull align 8 dereferenceable(8) %18, ptr noundef @.str.75)
          to label %22 unwind label %23

22:                                               ; preds = %17
  call void @_ZNSt6vectorINSt7__cxx1112basic_stringIcSt11char_traitsIcESaIcEEESaIS5_EED2Ev(ptr noundef nonnull align 8 dereferenceable(24) %7) #3
  call void @llvm.lifetime.end.p0(i64 24, ptr %7) #3
  ret void

23:                                               ; preds = %17, %3
  %24 = landingpad { ptr, i32 }
          cleanup
  %25 = extractvalue { ptr, i32 } %24, 0
  store ptr %25, ptr %8, align 8
  %26 = extractvalue { ptr, i32 } %24, 1
  store i32 %26, ptr %9, align 4
  call void @_ZNSt6vectorINSt7__cxx1112basic_stringIcSt11char_traitsIcESaIcEEESaIS5_EED2Ev(ptr noundef nonnull align 8 dereferenceable(24) %7) #3
  call void @llvm.lifetime.end.p0(i64 24, ptr %7) #3
  br label %27

27:                                               ; preds = %23
  %28 = load ptr, ptr %8, align 8
  %29 = load i32, ptr %9, align 4
  %30 = insertvalue { ptr, i32 } poison, ptr %28, 0
  %31 = insertvalue { ptr, i32 } %30, i32 %29, 1
  resume { ptr, i32 } %31
}