; Function Attrs: mustprogress uwtable
define internal fastcc void @_ZN19grpc_java_generator12_GLOBAL__N_126GrpcWriteServiceDocCommentEPN14grpc_generator7PrinterERSt3mapINSt7__cxx1112basic_stringIcSt11char_traitsIcESaIcEEESA_St4lessISA_ESaISt4pairIKSA_SA_EEEPKNS1_7ServiceE(ptr noundef nonnull %0, ptr noundef nonnull align 8 dereferenceable(48) %1, ptr noundef %2) unnamed_addr #3 personality ptr @__gxx_personality_v0 {
  %4 = alloca %"class.std::vector", align 8
  %5 = load ptr, ptr %0, align 8, !tbaa !14
  %6 = getelementptr inbounds nuw i8, ptr %5, i64 24
  %7 = load ptr, ptr %6, align 8
  tail call void %7(ptr noundef nonnull align 8 dereferenceable(8) %0, ptr noundef nonnull @.str.74)
  call void @llvm.lifetime.start.p0(i64 24, ptr nonnull %4) #22
  %8 = load ptr, ptr %2, align 8, !tbaa !14, !noalias !100
  %9 = getelementptr inbounds nuw i8, ptr %8, i64 32
  %10 = load ptr, ptr %9, align 8, !noalias !100
  call void %10(ptr dead_on_unwind nonnull writable sret(%"class.std::vector") align 8 %4, ptr noundef nonnull align 8 dereferenceable(8) %2)
  invoke fastcc void @_ZN19grpc_java_generator12_GLOBAL__N_123GrpcWriteDocCommentBodyEPN14grpc_generator7PrinterERSt3mapINSt7__cxx1112basic_stringIcSt11char_traitsIcESaIcEEESA_St4lessISA_ESaISt4pairIKSA_SA_EEERKSt6vectorISA_SaISA_EEb(ptr noundef %0, ptr noundef nonnull align 8 dereferenceable(48) %1, ptr noundef nonnull align 8 dereferenceable(24) %4, i1 noundef zeroext true)
          to label %11 unwind label %35

11:                                               ; preds = %3
  %12 = load ptr, ptr %0, align 8, !tbaa !14
  %13 = getelementptr inbounds nuw i8, ptr %12, i64 24
  %14 = load ptr, ptr %13, align 8
  invoke void %14(ptr noundef nonnull align 8 dereferenceable(8) %0, ptr noundef nonnull @.str.75)
          to label %15 unwind label %35

15:                                               ; preds = %11
  %16 = load ptr, ptr %4, align 8, !tbaa !103
  %17 = getelementptr inbounds nuw i8, ptr %4, i64 8
  %18 = load ptr, ptr %17, align 8, !tbaa !105
  %.not4.i.i.i.i = icmp eq ptr %16, %18
  br i1 %.not4.i.i.i.i, label %_ZSt8_DestroyIPNSt7__cxx1112basic_stringIcSt11char_traitsIcESaIcEEES5_EvT_S7_RSaIT0_E.exit.i, label %.lr.ph.i.i.i.i

.lr.ph.i.i.i.i:                                   ; preds = %15, %_ZSt8_DestroyINSt7__cxx1112basic_stringIcSt11char_traitsIcESaIcEEEEvPT_.exit.i.i.i.i
  %.05.i.i.i.i = phi ptr [ %27, %_ZSt8_DestroyINSt7__cxx1112basic_stringIcSt11char_traitsIcESaIcEEEEvPT_.exit.i.i.i.i ], [ %16, %15 ]
  %19 = load ptr, ptr %.05.i.i.i.i, align 8, !tbaa !25
  %20 = getelementptr inbounds nuw i8, ptr %.05.i.i.i.i, i64 16
  %21 = icmp eq ptr %19, %20
  br i1 %21, label %_ZNKSt7__cxx1112basic_stringIcSt11char_traitsIcESaIcEE11_M_is_localEv.exit.thread.i.i.i.i.i.i.i, label %_ZNKSt7__cxx1112basic_stringIcSt11char_traitsIcESaIcEE11_M_is_localEv.exit.i.i.i.i.i.i.i

_ZNKSt7__cxx1112basic_stringIcSt11char_traitsIcESaIcEE11_M_is_localEv.exit.thread.i.i.i.i.i.i.i: ; preds = %.lr.ph.i.i.i.i
  %22 = getelementptr inbounds nuw i8, ptr %.05.i.i.i.i, i64 8
  %23 = load i64, ptr %22, align 8, !tbaa !10
  %24 = icmp ult i64 %23, 16
  call void @llvm.assume(i1 %24)
  br label %_ZSt8_DestroyINSt7__cxx1112basic_stringIcSt11char_traitsIcESaIcEEEEvPT_.exit.i.i.i.i

_ZNKSt7__cxx1112basic_stringIcSt11char_traitsIcESaIcEE11_M_is_localEv.exit.i.i.i.i.i.i.i: ; preds = %.lr.ph.i.i.i.i
  %25 = load i64, ptr %20, align 8, !tbaa !13
  %26 = add i64 %25, 1
  call void @_ZdlPvm(ptr noundef %19, i64 noundef %26) #23
  br label %_ZSt8_DestroyINSt7__cxx1112basic_stringIcSt11char_traitsIcESaIcEEEEvPT_.exit.i.i.i.i

_ZSt8_DestroyINSt7__cxx1112basic_stringIcSt11char_traitsIcESaIcEEEEvPT_.exit.i.i.i.i: ; preds = %_ZNKSt7__cxx1112basic_stringIcSt11char_traitsIcESaIcEE11_M_is_localEv.exit.i.i.i.i.i.i.i, %_ZNKSt7__cxx1112basic_stringIcSt11char_traitsIcESaIcEE11_M_is_localEv.exit.thread.i.i.i.i.i.i.i
  %27 = getelementptr inbounds nuw i8, ptr %.05.i.i.i.i, i64 32
  %.not.i.i.i.i = icmp eq ptr %27, %18
  br i1 %.not.i.i.i.i, label %_ZSt8_DestroyIPNSt7__cxx1112basic_stringIcSt11char_traitsIcESaIcEEES5_EvT_S7_RSaIT0_E.exitthread-pre-split.i, label %.lr.ph.i.i.i.i, !llvm.loop !106

_ZSt8_DestroyIPNSt7__cxx1112basic_stringIcSt11char_traitsIcESaIcEEES5_EvT_S7_RSaIT0_E.exitthread-pre-split.i: ; preds = %_ZSt8_DestroyINSt7__cxx1112basic_stringIcSt11char_traitsIcESaIcEEEEvPT_.exit.i.i.i.i
  %.pr.i = load ptr, ptr %4, align 8, !tbaa !103
  br label %_ZSt8_DestroyIPNSt7__cxx1112basic_stringIcSt11char_traitsIcESaIcEEES5_EvT_S7_RSaIT0_E.exit.i

_ZSt8_DestroyIPNSt7__cxx1112basic_stringIcSt11char_traitsIcESaIcEEES5_EvT_S7_RSaIT0_E.exit.i: ; preds = %_ZSt8_DestroyIPNSt7__cxx1112basic_stringIcSt11char_traitsIcESaIcEEES5_EvT_S7_RSaIT0_E.exitthread-pre-split.i, %15
  %28 = phi ptr [ %.pr.i, %_ZSt8_DestroyIPNSt7__cxx1112basic_stringIcSt11char_traitsIcESaIcEEES5_EvT_S7_RSaIT0_E.exitthread-pre-split.i ], [ %16, %15 ]
  %.not.i.i.i = icmp eq ptr %28, null
  br i1 %.not.i.i.i, label %_ZNSt6vectorINSt7__cxx1112basic_stringIcSt11char_traitsIcESaIcEEESaIS5_EED2Ev.exit, label %29

29:                                               ; preds = %_ZSt8_DestroyIPNSt7__cxx1112basic_stringIcSt11char_traitsIcESaIcEEES5_EvT_S7_RSaIT0_E.exit.i
  %30 = getelementptr inbounds nuw i8, ptr %4, i64 16
  %31 = load ptr, ptr %30, align 8, !tbaa !107
  %32 = ptrtoint ptr %31 to i64
  %33 = ptrtoint ptr %28 to i64
  %34 = sub i64 %32, %33
  call void @_ZdlPvm(ptr noundef nonnull %28, i64 noundef %34) #23
  br label %_ZNSt6vectorINSt7__cxx1112basic_stringIcSt11char_traitsIcESaIcEEESaIS5_EED2Ev.exit

_ZNSt6vectorINSt7__cxx1112basic_stringIcSt11char_traitsIcESaIcEEESaIS5_EED2Ev.exit: ; preds = %_ZSt8_DestroyIPNSt7__cxx1112basic_stringIcSt11char_traitsIcESaIcEEES5_EvT_S7_RSaIT0_E.exit.i, %29
  call void @llvm.lifetime.end.p0(i64 24, ptr nonnull %4) #22
  ret void

35:                                               ; preds = %11, %3
  %36 = landingpad { ptr, i32 }
          cleanup
  call void @_ZNSt6vectorINSt7__cxx1112basic_stringIcSt11char_traitsIcESaIcEEESaIS5_EED2Ev(ptr noundef nonnull align 8 dereferenceable(24) %4) #22
  call void @llvm.lifetime.end.p0(i64 24, ptr nonnull %4) #22
  resume { ptr, i32 } %36
}